; Function Attrs: nounwind uwtable
define dso_local void @FreeBulkInsertState(ptr noundef %0) local_unnamed_addr #2 {
  %2 = getelementptr inbounds nuw i8, ptr %0, i64 8
  %3 = load i32, ptr %2, align 8
  %.not = icmp eq i32 %3, 0
  br i1 %.not, label %5, label %4

4:                                                ; preds = %1
  tail call void @ReleaseBuffer(i32 noundef %3) #13
  br label %5

5:                                                ; preds = %4, %1
  %6 = load ptr, ptr %0, align 8
  tail call void @FreeAccessStrategy(ptr noundef %6) #13
  tail call void @pfree(ptr noundef nonnull %0) #13
  ret void
}